target datalayout = "e-m:e-p270:32:32-p271:32:32-p272:64:64-i64:64-i128:128-f80:128-n8:16:32:64-S128"
target triple = "x86_64-pc-linux-gnu"

%union.pthread_mutex_t = type { %struct.__pthread_mutex_s }
%struct.__pthread_mutex_s = type { i32, i32, i32, i32, i32, i16, i16, %struct.__pthread_internal_list }
%struct.__pthread_internal_list = type { ptr, ptr }
%struct.anon.0 = type { %union.pthread_mutex_t, i32, ptr, ptr, i8 }

@.str.43 = private unnamed_addr constant [29 x i8] c"%s: pthread_mutex_lock(): %m\00", align 1
@.str.44 = private unnamed_addr constant [31 x i8] c"%s: pthread_mutex_unlock(): %m\00", align 1
@listeners = internal global { %union.pthread_mutex_t, i32, [4 x i8], ptr, ptr, i8, [7 x i8] } zeroinitializer, align 8
@__func__._on_finish = private unnamed_addr constant [11 x i8] c"_on_finish\00", align 1
@.str.155 = private unnamed_addr constant [40 x i8] c"%s: [%s] PRIMARY: RPC connection closed\00", align 1
@__func__._on_primary_finish = private unnamed_addr constant [19 x i8] c"_on_primary_finish\00", align 1

; Function Attrs: nounwind uwtable
define internal void @_on_primary_finish(ptr noundef %0, ptr noundef %1) #0 {
  %3 = alloca ptr, align 8
  %4 = alloca ptr, align 8
  store ptr %0, ptr %3, align 8
  store ptr %1, ptr %4, align 8
  br label %5

5:                                                ; preds = %2
  br label %6

6:                                                ; preds = %5
  %7 = call i32 @get_log_level()
  %8 = icmp sge i32 %7, 7
  br i1 %8, label %9, label %12

9:                                                ; preds = %6
  %10 = load ptr, ptr %3, align 8
  %11 = call ptr @conmgr_fd_get_name(ptr noundef %10)
  call void (i32, ptr, ...) @log_var(i32 noundef 7, ptr noundef @.str.155, ptr noundef @__func__._on_primary_finish, ptr noundef %11)
  br label %12

12:                                               ; preds = %9, %6
  br label %13

13:                                               ; preds = %12
  br label %14

14:                                               ; preds = %13
  ret void
}

; Function Attrs: nounwind uwtable
define internal void @_on_finish(ptr noundef %0, ptr noundef %1) #0 {
  %3 = alloca ptr, align 8
  %4 = alloca ptr, align 8
  %5 = alloca i8, align 1
  %6 = alloca i32, align 4
  %7 = alloca i32, align 4
  %8 = alloca i32, align 4
  store ptr %0, ptr %3, align 8
  store ptr %1, ptr %4, align 8
  call void @llvm.lifetime.start.p0(i64 1, ptr %5) #11
  br label %9

9:                                                ; preds = %2
  call void @llvm.lifetime.start.p0(i64 4, ptr %6) #11
  %10 = call i32 @pthread_mutex_lock(ptr noundef @listeners) #11
  store i32 %10, ptr %6, align 4
  %11 = load i32, ptr %6, align 4
  %12 = icmp ne i32 %11, 0
  br i1 %12, label %13, label %16

13:                                               ; preds = %9
  %14 = load i32, ptr %6, align 4
  %15 = call ptr @__errno_location() #14
  store i32 %14, ptr %15, align 4
  call void (ptr, ...) @fatal_abort(ptr noundef @.str.43, ptr noundef @__func__._on_finish) #12
  unreachable

16:                                               ; preds = %9
  call void @llvm.lifetime.end.p0(i64 4, ptr %6) #11
  br label %17

17:                                               ; preds = %16
  br label %18

18:                                               ; preds = %17
  %19 = load i8, ptr getelementptr inbounds nuw (%struct.anon.0, ptr @listeners, i32 0, i32 4), align 8, !range !8, !noundef !9
  %20 = trunc i8 %19 to i1
  %21 = zext i1 %20 to i8
  store i8 %21, ptr %5, align 1
  br label %22

22:                                               ; preds = %18
  call void @llvm.lifetime.start.p0(i64 4, ptr %7) #11
  %23 = call i32 @pthread_mutex_unlock(ptr noundef @listeners) #11
  store i32 %23, ptr %7, align 4
  %24 = load i32, ptr %7, align 4
  %25 = icmp ne i32 %24, 0
  br i1 %25, label %26, label %29

26:                                               ; preds = %22
  %27 = load i32, ptr %7, align 4
  %28 = call ptr @__errno_location() #14
  store i32 %27, ptr %28, align 4
  call void (ptr, ...) @fatal_abort(ptr noundef @.str.44, ptr noundef @__func__._on_finish) #12
  unreachable

29:                                               ; preds = %22
  call void @llvm.lifetime.end.p0(i64 4, ptr %7) #11
  br label %30

30:                                               ; preds = %29
  br label %31

31:                                               ; preds = %30
  %32 = load i8, ptr %5, align 1, !range !8, !noundef !9
  %33 = trunc i8 %32 to i1
  br i1 %33, label %37, label %34

34:                                               ; preds = %31
  %35 = load ptr, ptr %3, align 8
  %36 = load ptr, ptr %4, align 8
  call void @_on_primary_finish(ptr noundef %35, ptr noundef %36)
  store i32 1, ptr %8, align 4
  br label %40

37:                                               ; preds = %31
  %38 = load ptr, ptr %3, align 8
  %39 = load ptr, ptr %4, align 8
  call void @on_backup_finish(ptr noundef %38, ptr noundef %39)
  store i32 1, ptr %8, align 4
  br label %40

40:                                               ; preds = %37, %34
  call void @llvm.lifetime.end.p0(i64 1, ptr %5) #11
  ret void
}